target datalayout = "e-m:e-p270:32:32-p271:32:32-p272:64:64-i64:64-i128:128-f80:128-n8:16:32:64-S128"
target triple = "x86_64-pc-linux-gnu"

%struct.pg_compress_specification = type { i32, i32, i32, i32, i8, ptr }
%struct.CompressorState = type { ptr, ptr, ptr, ptr, ptr, %struct.pg_compress_specification, ptr }
%struct.z_stream_s = type { ptr, i32, i64, ptr, i32, i64, ptr, ptr, ptr, ptr, ptr, i32, i64, i64 }
%struct.GzipCompressorState = type { ptr, ptr, i64 }

@.str.4 = private unnamed_addr constant [28 x i8] c"could not compress data: %s\00", align 1

; Function Attrs: nounwind uwtable
define internal void @DeflateCompressorCommon(ptr noundef %0, ptr noundef %1, i1 noundef zeroext %2) #0 {
  %4 = alloca ptr, align 8
  %5 = alloca ptr, align 8
  %6 = alloca i8, align 1
  %7 = alloca ptr, align 8
  %8 = alloca ptr, align 8
  %9 = alloca ptr, align 8
  %10 = alloca i32, align 4
  %11 = alloca i64, align 8
  store ptr %0, ptr %4, align 8
  store ptr %1, ptr %5, align 8
  %12 = zext i1 %2 to i8
  store i8 %12, ptr %6, align 1
  call void @llvm.lifetime.start.p0(i64 8, ptr %7) #7
  %13 = load ptr, ptr %5, align 8
  %14 = getelementptr inbounds nuw %struct.CompressorState, ptr %13, i32 0, i32 6
  %15 = load ptr, ptr %14, align 8
  store ptr %15, ptr %7, align 8
  call void @llvm.lifetime.start.p0(i64 8, ptr %8) #7
  %16 = load ptr, ptr %7, align 8
  %17 = getelementptr inbounds nuw %struct.GzipCompressorState, ptr %16, i32 0, i32 0
  %18 = load ptr, ptr %17, align 8
  store ptr %18, ptr %8, align 8
  call void @llvm.lifetime.start.p0(i64 8, ptr %9) #7
  %19 = load ptr, ptr %7, align 8
  %20 = getelementptr inbounds nuw %struct.GzipCompressorState, ptr %19, i32 0, i32 1
  %21 = load ptr, ptr %20, align 8
  store ptr %21, ptr %9, align 8
  call void @llvm.lifetime.start.p0(i64 4, ptr %10) #7
  store i32 0, ptr %10, align 4
  br label %22

22:                                               ; preds = %109, %3
  %23 = load ptr, ptr %7, align 8
  %24 = getelementptr inbounds nuw %struct.GzipCompressorState, ptr %23, i32 0, i32 0
  %25 = load ptr, ptr %24, align 8
  %26 = getelementptr inbounds nuw %struct.z_stream_s, ptr %25, i32 0, i32 1
  %27 = load i32, ptr %26, align 8
  %28 = icmp ne i32 %27, 0
  br i1 %28, label %32, label %29

29:                                               ; preds = %22
  %30 = load i8, ptr %6, align 1, !range !8, !noundef !9
  %31 = trunc i8 %30 to i1
  br label %32

32:                                               ; preds = %29, %22
  %33 = phi i1 [ true, %22 ], [ %31, %29 ]
  br i1 %33, label %34, label %110

34:                                               ; preds = %32
  %35 = load ptr, ptr %8, align 8
  %36 = load i8, ptr %6, align 1, !range !8, !noundef !9
  %37 = trunc i8 %36 to i1
  %38 = select i1 %37, i32 4, i32 0
  %39 = call i32 @deflate(ptr noundef %35, i32 noundef %38)
  store i32 %39, ptr %10, align 4
  %40 = load i32, ptr %10, align 4
  %41 = icmp eq i32 %40, -2
  br i1 %41, label %42, label %49

42:                                               ; preds = %34
  br label %43

43:                                               ; preds = %42
  %44 = load ptr, ptr %8, align 8
  %45 = getelementptr inbounds nuw %struct.z_stream_s, ptr %44, i32 0, i32 6
  %46 = load ptr, ptr %45, align 8
  call void (i32, i32, ptr, ...) @pg_log_generic(i32 noundef 4, i32 noundef 0, ptr noundef @.str.4, ptr noundef %46)
  call void @exit_nicely(i32 noundef 1) #8
  unreachable

47:                                               ; No predecessors!
  br label %48

48:                                               ; preds = %47
  br label %49

49:                                               ; preds = %48, %34
  %50 = load i8, ptr %6, align 1, !range !8, !noundef !9
  %51 = trunc i8 %50 to i1
  br i1 %51, label %52, label %61

52:                                               ; preds = %49
  %53 = load ptr, ptr %8, align 8
  %54 = getelementptr inbounds nuw %struct.z_stream_s, ptr %53, i32 0, i32 4
  %55 = load i32, ptr %54, align 8
  %56 = zext i32 %55 to i64
  %57 = load ptr, ptr %7, align 8
  %58 = getelementptr inbounds nuw %struct.GzipCompressorState, ptr %57, i32 0, i32 2
  %59 = load i64, ptr %58, align 8
  %60 = icmp ult i64 %56, %59
  br i1 %60, label %71, label %61

61:                                               ; preds = %52, %49
  %62 = load ptr, ptr %8, align 8
  %63 = getelementptr inbounds nuw %struct.z_stream_s, ptr %62, i32 0, i32 4
  %64 = load i32, ptr %63, align 8
  %65 = icmp eq i32 %64, 0
  br i1 %65, label %71, label %66

66:                                               ; preds = %61
  %67 = load ptr, ptr %8, align 8
  %68 = getelementptr inbounds nuw %struct.z_stream_s, ptr %67, i32 0, i32 1
  %69 = load i32, ptr %68, align 8
  %70 = icmp ne i32 %69, 0
  br i1 %70, label %71, label %105

71:                                               ; preds = %66, %61, %52
  %72 = load ptr, ptr %8, align 8
  %73 = getelementptr inbounds nuw %struct.z_stream_s, ptr %72, i32 0, i32 4
  %74 = load i32, ptr %73, align 8
  %75 = zext i32 %74 to i64
  %76 = load ptr, ptr %7, align 8
  %77 = getelementptr inbounds nuw %struct.GzipCompressorState, ptr %76, i32 0, i32 2
  %78 = load i64, ptr %77, align 8
  %79 = icmp ult i64 %75, %78
  br i1 %79, label %80, label %95

80:                                               ; preds = %71
  call void @llvm.lifetime.start.p0(i64 8, ptr %11) #7
  %81 = load ptr, ptr %7, align 8
  %82 = getelementptr inbounds nuw %struct.GzipCompressorState, ptr %81, i32 0, i32 2
  %83 = load i64, ptr %82, align 8
  %84 = load ptr, ptr %8, align 8
  %85 = getelementptr inbounds nuw %struct.z_stream_s, ptr %84, i32 0, i32 4
  %86 = load i32, ptr %85, align 8
  %87 = zext i32 %86 to i64
  %88 = sub i64 %83, %87
  store i64 %88, ptr %11, align 8
  %89 = load ptr, ptr %5, align 8
  %90 = getelementptr inbounds nuw %struct.CompressorState, ptr %89, i32 0, i32 4
  %91 = load ptr, ptr %90, align 8
  %92 = load ptr, ptr %4, align 8
  %93 = load ptr, ptr %9, align 8
  %94 = load i64, ptr %11, align 8
  call void %91(ptr noundef %92, ptr noundef %93, i64 noundef %94)
  call void @llvm.lifetime.end.p0(i64 8, ptr %11) #7
  br label %95

95:                                               ; preds = %80, %71
  %96 = load ptr, ptr %9, align 8
  %97 = load ptr, ptr %8, align 8
  %98 = getelementptr inbounds nuw %struct.z_stream_s, ptr %97, i32 0, i32 3
  store ptr %96, ptr %98, align 8
  %99 = load ptr, ptr %7, align 8
  %100 = getelementptr inbounds nuw %struct.GzipCompressorState, ptr %99, i32 0, i32 2
  %101 = load i64, ptr %100, align 8
  %102 = trunc i64 %101 to i32
  %103 = load ptr, ptr %8, align 8
  %104 = getelementptr inbounds nuw %struct.z_stream_s, ptr %103, i32 0, i32 4
  store i32 %102, ptr %104, align 8
  br label %105

105:                                              ; preds = %95, %66
  %106 = load i32, ptr %10, align 4
  %107 = icmp eq i32 %106, 1
  br i1 %107, label %108, label %109

108:                                              ; preds = %105
  br label %110

109:                                              ; preds = %105
  br label %22, !llvm.loop !10

110:                                              ; preds = %108, %32
  call void @llvm.lifetime.end.p0(i64 4, ptr %10) #7
  call void @llvm.lifetime.end.p0(i64 8, ptr %9) #7
  call void @llvm.lifetime.end.p0(i64 8, ptr %8) #7
  call void @llvm.lifetime.end.p0(i64 8, ptr %7) #7
  ret void
}

; Function Attrs: nounwind uwtable
define internal void @WriteDataToArchiveGzip(ptr noundef %0, ptr noundef %1, ptr noundef %2, i64 noundef %3) #0 {
  %5 = alloca ptr, align 8
  %6 = alloca ptr, align 8
  %7 = alloca ptr, align 8
  %8 = alloca i64, align 8
  %9 = alloca ptr, align 8
  store ptr %0, ptr %5, align 8
  store ptr %1, ptr %6, align 8
  store ptr %2, ptr %7, align 8
  store i64 %3, ptr %8, align 8
  call void @llvm.lifetime.start.p0(i64 8, ptr %9) #7
  %10 = load ptr, ptr %6, align 8
  %11 = getelementptr inbounds nuw %struct.CompressorState, ptr %10, i32 0, i32 6
  %12 = load ptr, ptr %11, align 8
  store ptr %12, ptr %9, align 8
  %13 = load ptr, ptr %7, align 8
  %14 = load ptr, ptr %9, align 8
  %15 = getelementptr inbounds nuw %struct.GzipCompressorState, ptr %14, i32 0, i32 0
  %16 = load ptr, ptr %15, align 8
  %17 = getelementptr inbounds nuw %struct.z_stream_s, ptr %16, i32 0, i32 0
  store ptr %13, ptr %17, align 8
  %18 = load i64, ptr %8, align 8
  %19 = trunc i64 %18 to i32
  %20 = load ptr, ptr %9, align 8
  %21 = getelementptr inbounds nuw %struct.GzipCompressorState, ptr %20, i32 0, i32 0
  %22 = load ptr, ptr %21, align 8
  %23 = getelementptr inbounds nuw %struct.z_stream_s, ptr %22, i32 0, i32 1
  store i32 %19, ptr %23, align 8
  %24 = load ptr, ptr %5, align 8
  %25 = load ptr, ptr %6, align 8
  call void @DeflateCompressorCommon(ptr noundef %24, ptr noundef %25, i1 noundef zeroext false)
  call void @llvm.lifetime.end.p0(i64 8, ptr %9) #7
  ret void
}