; Function Attrs: nounwind uwtable
define internal void @WriteDataToArchiveGzip(ptr noundef %0, ptr noundef readonly captures(none) %1, ptr noundef %2, i64 noundef %3) #0 {
  %5 = getelementptr inbounds nuw i8, ptr %1, i64 72
  %6 = load ptr, ptr %5, align 8
  %7 = load ptr, ptr %6, align 8
  store ptr %2, ptr %7, align 8
  %8 = trunc i64 %3 to i32
  %9 = load ptr, ptr %6, align 8
  %10 = getelementptr inbounds nuw i8, ptr %9, i64 8
  store i32 %8, ptr %10, align 8
  %11 = load ptr, ptr %5, align 8
  %12 = load ptr, ptr %11, align 8
  %13 = getelementptr inbounds nuw i8, ptr %11, i64 8
  %14 = load ptr, ptr %13, align 8
  %15 = getelementptr inbounds nuw i8, ptr %12, i64 32
  %16 = getelementptr inbounds nuw i8, ptr %11, i64 16
  %17 = getelementptr inbounds nuw i8, ptr %12, i64 8
  %18 = getelementptr inbounds nuw i8, ptr %1, i64 32
  %19 = getelementptr inbounds nuw i8, ptr %12, i64 24
  br label %.split.i

.split.i:                                         ; preds = %43, %4
  %20 = load ptr, ptr %11, align 8
  %21 = getelementptr inbounds nuw i8, ptr %20, i64 8
  %22 = load i32, ptr %21, align 8
  %.not32.i = icmp eq i32 %22, 0
  br i1 %.not32.i, label %DeflateCompressorCommon.exit, label %23

23:                                               ; preds = %.split.i
  %24 = tail call i32 @deflate(ptr noundef %12, i32 noundef 0) #11
  %25 = icmp eq i32 %24, -2
  br i1 %25, label %.split31.us.i, label %28

.split31.us.i:                                    ; preds = %23
  %26 = getelementptr inbounds nuw i8, ptr %12, i64 48
  %27 = load ptr, ptr %26, align 8
  tail call void (i32, i32, ptr, ...) @pg_log_generic(i32 noundef 4, i32 noundef 0, ptr noundef nonnull @.str.4, ptr noundef %27) #11
  tail call void @exit_nicely(i32 noundef 1) #12
  unreachable

28:                                               ; preds = %23
  %29 = load i32, ptr %15, align 8
  %30 = icmp eq i32 %29, 0
  br i1 %30, label %33, label %31

31:                                               ; preds = %28
  %32 = load i32, ptr %17, align 8
  %.not.i = icmp eq i32 %32, 0
  br i1 %.not.i, label %43, label %33

33:                                               ; preds = %31, %28
  %34 = zext i32 %29 to i64
  %35 = load i64, ptr %16, align 8
  %36 = icmp ugt i64 %35, %34
  br i1 %36, label %37, label %40

37:                                               ; preds = %33
  %38 = sub nuw i64 %35, %34
  %39 = load ptr, ptr %18, align 8
  tail call void %39(ptr noundef %0, ptr noundef %14, i64 noundef %38) #11
  br label %40

40:                                               ; preds = %37, %33
  store ptr %14, ptr %19, align 8
  %41 = load i64, ptr %16, align 8
  %42 = trunc i64 %41 to i32
  store i32 %42, ptr %15, align 8
  br label %43

43:                                               ; preds = %40, %31
  %44 = icmp eq i32 %24, 1
  br i1 %44, label %DeflateCompressorCommon.exit, label %.split.i, !llvm.loop !8

DeflateCompressorCommon.exit:                     ; preds = %.split.i, %43
  ret void
}